target datalayout = "e-m:e-p270:32:32-p271:32:32-p272:64:64-i64:64-i128:128-f80:128-n8:16:32:64-S128"
target triple = "x86_64-pc-linux-gnu"

%struct.obj_info = type { ptr, ptr, i64, ptr, i64, i64, %struct.dwarf_section, %struct.dwarf_section, %struct.dwarf_section, %struct.dwarf_section, %struct.dwarf_section, %struct.dwarf_section, %struct.dwarf_section, %struct.dwarf_section, %struct.dwarf_section, ptr }
%struct.dwarf_section = type { ptr, i64, i64 }
%struct.line_info = type { ptr, ptr, ptr, i32, i64, i64, ptr, ptr }

@binary_filename = internal global [4097 x i8] zeroinitializer, align 16
@.str.22 = private unnamed_addr constant [40 x i8] c"Unexpected file number %d in %s at %tx\0A\00", align 1
@.str.23 = private unnamed_addr constant [1 x i8] zeroinitializer, align 1
@.str.24 = private unnamed_addr constant [39 x i8] c"Unexpected directory number %lu in %s\0A\00", align 1

; Function Attrs: nounwind sspstrong uwtable
define internal ptr @get_nth_dirname(i64 noundef %0, ptr noundef %1, ptr noundef %2) #0 {
  %4 = alloca ptr, align 8
  %5 = alloca i64, align 8
  %6 = alloca ptr, align 8
  %7 = alloca ptr, align 8
  store i64 %0, ptr %5, align 8, !tbaa !21
  store ptr %1, ptr %6, align 8, !tbaa !19
  store ptr %2, ptr %7, align 8, !tbaa !13
  %8 = load i64, ptr %5, align 8, !tbaa !21
  %9 = add i64 %8, -1
  store i64 %9, ptr %5, align 8, !tbaa !21
  %10 = icmp ne i64 %8, 0
  br i1 %10, label %12, label %11

11:                                               ; preds = %3
  store ptr @.str.23, ptr %4, align 8
  br label %38

12:                                               ; preds = %3
  br label %13

13:                                               ; preds = %35, %12
  %14 = load i64, ptr %5, align 8, !tbaa !21
  %15 = add i64 %14, -1
  store i64 %15, ptr %5, align 8, !tbaa !21
  %16 = icmp ne i64 %14, 0
  br i1 %16, label %17, label %36

17:                                               ; preds = %13
  br label %18

18:                                               ; preds = %22, %17
  %19 = load ptr, ptr %6, align 8, !tbaa !19
  %20 = load i8, ptr %19, align 1, !tbaa !53
  %21 = icmp ne i8 %20, 0
  br i1 %21, label %22, label %25

22:                                               ; preds = %18
  %23 = load ptr, ptr %6, align 8, !tbaa !19
  %24 = getelementptr i8, ptr %23, i32 1
  store ptr %24, ptr %6, align 8, !tbaa !19
  br label %18, !llvm.loop !191

25:                                               ; preds = %18
  %26 = load ptr, ptr %6, align 8, !tbaa !19
  %27 = getelementptr i8, ptr %26, i32 1
  store ptr %27, ptr %6, align 8, !tbaa !19
  %28 = load ptr, ptr %6, align 8, !tbaa !19
  %29 = load i8, ptr %28, align 1, !tbaa !53
  %30 = icmp ne i8 %29, 0
  br i1 %30, label %35, label %31

31:                                               ; preds = %25
  %32 = load ptr, ptr %7, align 8, !tbaa !13
  %33 = load i64, ptr %5, align 8, !tbaa !21
  %34 = call i32 (ptr, i32, ptr, ...) @__fprintf_chk(ptr noundef %32, i32 noundef 1, ptr noundef @.str.24, i64 noundef %33, ptr noundef @binary_filename)
  store ptr @.str.23, ptr %4, align 8
  br label %38

35:                                               ; preds = %25
  br label %13, !llvm.loop !192

36:                                               ; preds = %13
  %37 = load ptr, ptr %6, align 8, !tbaa !19
  store ptr %37, ptr %4, align 8
  br label %38

38:                                               ; preds = %36, %31, %11
  %39 = load ptr, ptr %4, align 8
  ret ptr %39
}

; Function Attrs: nounwind sspstrong uwtable
define internal i64 @uleb128(ptr noundef %0) #0 {
  %2 = alloca ptr, align 8
  %3 = alloca i64, align 8
  %4 = alloca i32, align 4
  %5 = alloca i8, align 1
  %6 = alloca i32, align 4
  store ptr %0, ptr %2, align 8, !tbaa !91
  call void @llvm.lifetime.start.p0(i64 8, ptr %3) #12
  store i64 0, ptr %3, align 8, !tbaa !21
  call void @llvm.lifetime.start.p0(i64 4, ptr %4) #12
  store i32 0, ptr %4, align 4, !tbaa !7
  br label %7

7:                                                ; preds = %36, %1
  call void @llvm.lifetime.start.p0(i64 1, ptr %5) #12
  %8 = load ptr, ptr %2, align 8, !tbaa !91
  %9 = load ptr, ptr %8, align 8, !tbaa !19
  %10 = getelementptr i8, ptr %9, i32 1
  store ptr %10, ptr %8, align 8, !tbaa !19
  %11 = load i8, ptr %9, align 1, !tbaa !53
  store i8 %11, ptr %5, align 1, !tbaa !53
  %12 = load i8, ptr %5, align 1, !tbaa !53
  %13 = zext i8 %12 to i32
  %14 = icmp slt i32 %13, 128
  br i1 %14, label %15, label %23

15:                                               ; preds = %7
  %16 = load i8, ptr %5, align 1, !tbaa !53
  %17 = zext i8 %16 to i64
  %18 = load i32, ptr %4, align 4, !tbaa !7
  %19 = zext i32 %18 to i64
  %20 = shl i64 %17, %19
  %21 = load i64, ptr %3, align 8, !tbaa !21
  %22 = add i64 %21, %20
  store i64 %22, ptr %3, align 8, !tbaa !21
  store i32 2, ptr %6, align 4
  br label %34

23:                                               ; preds = %7
  %24 = load i8, ptr %5, align 1, !tbaa !53
  %25 = zext i8 %24 to i32
  %26 = and i32 %25, 127
  %27 = load i32, ptr %4, align 4, !tbaa !7
  %28 = shl i32 %26, %27
  %29 = sext i32 %28 to i64
  %30 = load i64, ptr %3, align 8, !tbaa !21
  %31 = add i64 %30, %29
  store i64 %31, ptr %3, align 8, !tbaa !21
  %32 = load i32, ptr %4, align 4, !tbaa !7
  %33 = add i32 %32, 7
  store i32 %33, ptr %4, align 4, !tbaa !7
  store i32 0, ptr %6, align 4
  br label %34

34:                                               ; preds = %23, %15
  call void @llvm.lifetime.end.p0(i64 1, ptr %5) #12
  %35 = load i32, ptr %6, align 4
  switch i32 %35, label %39 [
    i32 0, label %36
    i32 2, label %37
  ]

36:                                               ; preds = %34
  br label %7

37:                                               ; preds = %34
  %38 = load i64, ptr %3, align 8, !tbaa !21
  store i32 1, ptr %6, align 4
  call void @llvm.lifetime.end.p0(i64 4, ptr %4) #12
  call void @llvm.lifetime.end.p0(i64 8, ptr %3) #12
  ret i64 %38

39:                                               ; preds = %34
  unreachable
}

; Function Attrs: nounwind sspstrong uwtable
define internal void @fill_filename(i32 noundef %0, i8 noundef zeroext %1, i16 noundef zeroext %2, ptr noundef %3, ptr noundef %4, ptr noundef %5, ptr noundef %6, ptr noundef %7) #0 {
  %9 = alloca i32, align 4
  %10 = alloca i8, align 1
  %11 = alloca i16, align 2
  %12 = alloca ptr, align 8
  %13 = alloca ptr, align 8
  %14 = alloca ptr, align 8
  %15 = alloca ptr, align 8
  %16 = alloca ptr, align 8
  %17 = alloca i32, align 4
  %18 = alloca ptr, align 8
  %19 = alloca ptr, align 8
  %20 = alloca i64, align 8
  %21 = alloca ptr, align 8
  %22 = alloca i64, align 8
  %23 = alloca i32, align 4
  store i32 %0, ptr %9, align 4, !tbaa !7
  store i8 %1, ptr %10, align 1, !tbaa !53
  store i16 %2, ptr %11, align 2, !tbaa !107
  store ptr %3, ptr %12, align 8, !tbaa !19
  store ptr %4, ptr %13, align 8, !tbaa !19
  store ptr %5, ptr %14, align 8, !tbaa !15
  store ptr %6, ptr %15, align 8, !tbaa !17
  store ptr %7, ptr %16, align 8, !tbaa !13
  call void @llvm.lifetime.start.p0(i64 4, ptr %17) #12
  call void @llvm.lifetime.start.p0(i64 8, ptr %18) #12
  %24 = load ptr, ptr %13, align 8, !tbaa !19
  store ptr %24, ptr %18, align 8, !tbaa !19
  call void @llvm.lifetime.start.p0(i64 8, ptr %19) #12
  call void @llvm.lifetime.start.p0(i64 8, ptr %20) #12
  %25 = load i16, ptr %11, align 2, !tbaa !107
  %26 = zext i16 %25 to i32
  %27 = icmp sge i32 %26, 5
  br i1 %27, label %28, label %48

28:                                               ; preds = %8
  call void @llvm.lifetime.start.p0(i64 8, ptr %21) #12
  call void @llvm.lifetime.start.p0(i64 8, ptr %22) #12
  store i64 -1, ptr %22, align 8, !tbaa !21
  %29 = load ptr, ptr %13, align 8, !tbaa !19
  %30 = load i32, ptr %9, align 4, !tbaa !7
  %31 = load i8, ptr %10, align 1, !tbaa !53
  %32 = load ptr, ptr %15, align 8, !tbaa !17
  %33 = load ptr, ptr %16, align 8, !tbaa !13
  %34 = call ptr @parse_ver5_debug_line_header(ptr noundef %29, i32 noundef %30, i8 noundef zeroext %31, ptr noundef %32, ptr noundef %21, ptr noundef %22, ptr noundef %33)
  %35 = load ptr, ptr %21, align 8, !tbaa !19
  %36 = load ptr, ptr %14, align 8, !tbaa !15
  %37 = getelementptr inbounds nuw %struct.line_info, ptr %36, i32 0, i32 1
  store ptr %35, ptr %37, align 8, !tbaa !126
  %38 = load ptr, ptr %12, align 8, !tbaa !19
  %39 = load i64, ptr %22, align 8, !tbaa !21
  %40 = trunc i64 %39 to i32
  %41 = load i8, ptr %10, align 1, !tbaa !53
  %42 = load ptr, ptr %15, align 8, !tbaa !17
  %43 = load ptr, ptr %16, align 8, !tbaa !13
  %44 = call ptr @parse_ver5_debug_line_header(ptr noundef %38, i32 noundef %40, i8 noundef zeroext %41, ptr noundef %42, ptr noundef %21, ptr noundef null, ptr noundef %43)
  %45 = load ptr, ptr %21, align 8, !tbaa !19
  %46 = load ptr, ptr %14, align 8, !tbaa !15
  %47 = getelementptr inbounds nuw %struct.line_info, ptr %46, i32 0, i32 0
  store ptr %45, ptr %47, align 8, !tbaa !125
  call void @llvm.lifetime.end.p0(i64 8, ptr %22) #12
  call void @llvm.lifetime.end.p0(i64 8, ptr %21) #12
  br label %101

48:                                               ; preds = %8
  store i32 1, ptr %17, align 4, !tbaa !7
  br label %49

49:                                               ; preds = %97, %48
  %50 = load i32, ptr %17, align 4, !tbaa !7
  %51 = load i32, ptr %9, align 4, !tbaa !7
  %52 = icmp sle i32 %50, %51
  br i1 %52, label %53, label %100

53:                                               ; preds = %49
  %54 = load ptr, ptr %18, align 8, !tbaa !19
  store ptr %54, ptr %19, align 8, !tbaa !19
  %55 = load ptr, ptr %18, align 8, !tbaa !19
  %56 = load i8, ptr %55, align 1, !tbaa !53
  %57 = icmp ne i8 %56, 0
  br i1 %57, label %69, label %58

58:                                               ; preds = %53
  %59 = load ptr, ptr %16, align 8, !tbaa !13
  %60 = load i32, ptr %9, align 4, !tbaa !7
  %61 = load ptr, ptr %13, align 8, !tbaa !19
  %62 = load ptr, ptr %15, align 8, !tbaa !17
  %63 = getelementptr inbounds nuw %struct.obj_info, ptr %62, i32 0, i32 1
  %64 = load ptr, ptr %63, align 8, !tbaa !47
  %65 = ptrtoint ptr %61 to i64
  %66 = ptrtoint ptr %64 to i64
  %67 = sub i64 %65, %66
  %68 = call i32 (ptr, i32, ptr, ...) @__fprintf_chk(ptr noundef %59, i32 noundef 1, ptr noundef @.str.22, i32 noundef %60, ptr noundef @binary_filename, i64 noundef %67)
  store i32 1, ptr %23, align 4
  br label %102

69:                                               ; preds = %53
  br label %70

70:                                               ; preds = %74, %69
  %71 = load ptr, ptr %18, align 8, !tbaa !19
  %72 = load i8, ptr %71, align 1, !tbaa !53
  %73 = icmp ne i8 %72, 0
  br i1 %73, label %74, label %77

74:                                               ; preds = %70
  %75 = load ptr, ptr %18, align 8, !tbaa !19
  %76 = getelementptr i8, ptr %75, i32 1
  store ptr %76, ptr %18, align 8, !tbaa !19
  br label %70, !llvm.loop !177

77:                                               ; preds = %70
  %78 = load ptr, ptr %18, align 8, !tbaa !19
  %79 = getelementptr i8, ptr %78, i32 1
  store ptr %79, ptr %18, align 8, !tbaa !19
  %80 = call i64 @uleb128(ptr noundef %18)
  store i64 %80, ptr %20, align 8, !tbaa !21
  %81 = call i64 @uleb128(ptr noundef %18)
  %82 = call i64 @uleb128(ptr noundef %18)
  %83 = load i32, ptr %17, align 4, !tbaa !7
  %84 = load i32, ptr %9, align 4, !tbaa !7
  %85 = icmp eq i32 %83, %84
  br i1 %85, label %86, label %96

86:                                               ; preds = %77
  %87 = load ptr, ptr %19, align 8, !tbaa !19
  %88 = load ptr, ptr %14, align 8, !tbaa !15
  %89 = getelementptr inbounds nuw %struct.line_info, ptr %88, i32 0, i32 1
  store ptr %87, ptr %89, align 8, !tbaa !126
  %90 = load i64, ptr %20, align 8, !tbaa !21
  %91 = load ptr, ptr %12, align 8, !tbaa !19
  %92 = load ptr, ptr %16, align 8, !tbaa !13
  %93 = call ptr @get_nth_dirname(i64 noundef %90, ptr noundef %91, ptr noundef %92)
  %94 = load ptr, ptr %14, align 8, !tbaa !15
  %95 = getelementptr inbounds nuw %struct.line_info, ptr %94, i32 0, i32 0
  store ptr %93, ptr %95, align 8, !tbaa !125
  br label %96

96:                                               ; preds = %86, %77
  br label %97

97:                                               ; preds = %96
  %98 = load i32, ptr %17, align 4, !tbaa !7
  %99 = add i32 %98, 1
  store i32 %99, ptr %17, align 4, !tbaa !7
  br label %49, !llvm.loop !178

100:                                              ; preds = %49
  br label %101

101:                                              ; preds = %100, %28
  store i32 0, ptr %23, align 4
  br label %102

102:                                              ; preds = %101, %58
  call void @llvm.lifetime.end.p0(i64 8, ptr %20) #12
  call void @llvm.lifetime.end.p0(i64 8, ptr %19) #12
  call void @llvm.lifetime.end.p0(i64 8, ptr %18) #12
  call void @llvm.lifetime.end.p0(i64 4, ptr %17) #12
  %103 = load i32, ptr %23, align 4
  switch i32 %103, label %105 [
    i32 0, label %104
    i32 1, label %104
  ]

104:                                              ; preds = %102, %102
  ret void

105:                                              ; preds = %102
  unreachable
}