; Function Attrs: nounwind sspstrong uwtable
define internal fastcc void @fill_filename(i32 noundef %0, i8 noundef zeroext %1, i16 noundef zeroext %2, ptr noundef %3, ptr noundef %4, ptr noundef writeonly captures(none) %5, ptr noundef %6, ptr noundef %7) unnamed_addr #0 {
  %9 = alloca ptr, align 8
  %10 = alloca i64, align 8
  %11 = icmp ugt i16 %2, 4
  br i1 %11, label %13, label %.preheader55

.preheader55:                                     ; preds = %8
  %.not65 = icmp slt i32 %0, 1
  br i1 %.not65, label %.loopexit, label %.lr.ph

.lr.ph:                                           ; preds = %.preheader55
  %12 = getelementptr inbounds nuw i8, ptr %5, i64 8
  br label %21

13:                                               ; preds = %8
  call void @llvm.lifetime.start.p0(i64 8, ptr nonnull %9) #16
  call void @llvm.lifetime.start.p0(i64 8, ptr nonnull %10) #16
  store i64 -1, ptr %10, align 8, !tbaa !68
  %14 = call fastcc ptr @parse_ver5_debug_line_header(ptr noundef %4, i32 noundef %0, i8 noundef zeroext %1, ptr noundef %6, ptr noundef nonnull %9, ptr noundef nonnull %10, ptr noundef %7)
  %15 = load ptr, ptr %9, align 8, !tbaa !62
  %16 = getelementptr inbounds nuw i8, ptr %5, i64 8
  store ptr %15, ptr %16, align 8, !tbaa !37
  %17 = load i64, ptr %10, align 8, !tbaa !68
  %18 = trunc i64 %17 to i32
  %19 = call fastcc ptr @parse_ver5_debug_line_header(ptr noundef %3, i32 noundef %18, i8 noundef zeroext %1, ptr noundef %6, ptr noundef nonnull %9, ptr noundef null, ptr noundef %7)
  %20 = load ptr, ptr %9, align 8, !tbaa !62
  store ptr %20, ptr %5, align 8, !tbaa !36
  call void @llvm.lifetime.end.p0(i64 8, ptr nonnull %10) #16
  call void @llvm.lifetime.end.p0(i64 8, ptr nonnull %9) #16
  br label %.loopexit

21:                                               ; preds = %.lr.ph, %73
  %.067 = phi i32 [ 1, %.lr.ph ], [ %74, %73 ]
  %.05466 = phi ptr [ %4, %.lr.ph ], [ %.4, %73 ]
  %22 = load i8, ptr %.05466, align 1, !tbaa !12
  %.not28 = icmp eq i8 %22, 0
  br i1 %.not28, label %23, label %.preheader

23:                                               ; preds = %21
  %24 = getelementptr inbounds nuw i8, ptr %6, i64 8
  %25 = load ptr, ptr %24, align 8, !tbaa !47
  %26 = ptrtoint ptr %4 to i64
  %27 = ptrtoint ptr %25 to i64
  %28 = sub i64 %26, %27
  %29 = tail call i32 (ptr, i32, ptr, ...) @__fprintf_chk(ptr noundef %7, i32 noundef 1, ptr noundef nonnull @.str.22, i32 noundef %0, ptr noundef nonnull @binary_filename, i64 noundef %28) #16
  br label %.loopexit

.preheader:                                       ; preds = %21, %.preheader
  %.164 = phi ptr [ %30, %.preheader ], [ %.05466, %21 ]
  %30 = getelementptr i8, ptr %.164, i64 1
  %.pr = load i8, ptr %30, align 1, !tbaa !12
  %.not29 = icmp eq i8 %.pr, 0
  br i1 %.not29, label %31, label %.preheader, !llvm.loop !159

31:                                               ; preds = %.preheader
  %32 = getelementptr i8, ptr %.164, i64 2
  %33 = getelementptr i8, ptr %.164, i64 3
  %34 = load i8, ptr %32, align 1, !tbaa !12
  %35 = icmp sgt i8 %34, -1
  br i1 %35, label %uleb128.exit, label %.lr.ph.i

.lr.ph.i:                                         ; preds = %31, %.lr.ph.i
  %36 = phi i8 [ %44, %.lr.ph.i ], [ %34, %31 ]
  %37 = phi ptr [ %43, %.lr.ph.i ], [ %33, %31 ]
  %.01021.i = phi i64 [ %.1.i, %.lr.ph.i ], [ 0, %31 ]
  %.01120.i = phi i32 [ %42, %.lr.ph.i ], [ 0, %31 ]
  %38 = and i8 %36, 127
  %39 = zext nneg i8 %38 to i32
  %40 = shl i32 %39, %.01120.i
  %41 = sext i32 %40 to i64
  %42 = add i32 %.01120.i, 7
  %.1.i = add i64 %.01021.i, %41
  %43 = getelementptr i8, ptr %37, i64 1
  %44 = load i8, ptr %37, align 1, !tbaa !12
  %45 = icmp sgt i8 %44, -1
  br i1 %45, label %._crit_edge.loopexit.i, label %.lr.ph.i

._crit_edge.loopexit.i:                           ; preds = %.lr.ph.i
  %46 = zext nneg i32 %42 to i64
  br label %uleb128.exit

uleb128.exit:                                     ; preds = %31, %._crit_edge.loopexit.i
  %.2 = phi ptr [ %33, %31 ], [ %43, %._crit_edge.loopexit.i ]
  %.011.lcssa.i = phi i64 [ 0, %31 ], [ %46, %._crit_edge.loopexit.i ]
  %.010.lcssa.i = phi i64 [ 0, %31 ], [ %.1.i, %._crit_edge.loopexit.i ]
  %.lcssa.i = phi i8 [ %34, %31 ], [ %44, %._crit_edge.loopexit.i ]
  %47 = zext nneg i8 %.lcssa.i to i64
  %48 = shl i64 %47, %.011.lcssa.i
  %.117.i = add i64 %48, %.010.lcssa.i
  %49 = getelementptr i8, ptr %.2, i64 1
  %50 = load i8, ptr %.2, align 1, !tbaa !12
  %51 = icmp sgt i8 %50, -1
  br i1 %51, label %uleb128.exit40, label %.lr.ph.i31

.lr.ph.i31:                                       ; preds = %uleb128.exit, %.lr.ph.i31
  %52 = phi ptr [ %53, %.lr.ph.i31 ], [ %49, %uleb128.exit ]
  %53 = getelementptr i8, ptr %52, i64 1
  %54 = load i8, ptr %52, align 1, !tbaa !12
  %55 = icmp sgt i8 %54, -1
  br i1 %55, label %uleb128.exit40, label %.lr.ph.i31

uleb128.exit40:                                   ; preds = %.lr.ph.i31, %uleb128.exit
  %.3 = phi ptr [ %49, %uleb128.exit ], [ %53, %.lr.ph.i31 ]
  %56 = getelementptr i8, ptr %.3, i64 1
  %57 = load i8, ptr %.3, align 1, !tbaa !12
  %58 = icmp sgt i8 %57, -1
  br i1 %58, label %uleb128.exit51, label %.lr.ph.i42

.lr.ph.i42:                                       ; preds = %uleb128.exit40, %.lr.ph.i42
  %59 = phi ptr [ %60, %.lr.ph.i42 ], [ %56, %uleb128.exit40 ]
  %60 = getelementptr i8, ptr %59, i64 1
  %61 = load i8, ptr %59, align 1, !tbaa !12
  %62 = icmp sgt i8 %61, -1
  br i1 %62, label %uleb128.exit51, label %.lr.ph.i42

uleb128.exit51:                                   ; preds = %.lr.ph.i42, %uleb128.exit40
  %.4 = phi ptr [ %56, %uleb128.exit40 ], [ %60, %.lr.ph.i42 ]
  %63 = icmp eq i32 %.067, %0
  br i1 %63, label %64, label %73

64:                                               ; preds = %uleb128.exit51
  store ptr %.05466, ptr %12, align 8, !tbaa !37
  %.not.i = icmp eq i64 %.117.i, 0
  br i1 %.not.i, label %get_nth_dirname.exit, label %.preheader14.preheader.i

.preheader14.preheader.i:                         ; preds = %64
  %65 = add i64 %.117.i, -1
  br label %.preheader14.i

.preheader14.i:                                   ; preds = %69, %.preheader14.preheader.i
  %.010.i = phi i64 [ %66, %69 ], [ %65, %.preheader14.preheader.i ]
  %.09.i = phi ptr [ %68, %69 ], [ %3, %.preheader14.preheader.i ]
  %66 = add i64 %.010.i, -1
  %.not11.i = icmp eq i64 %.010.i, 0
  br i1 %.not11.i, label %get_nth_dirname.exit, label %.preheader.i

.preheader.i:                                     ; preds = %.preheader14.i, %.preheader.i
  %.1.i52 = phi ptr [ %68, %.preheader.i ], [ %.09.i, %.preheader14.i ]
  %67 = load i8, ptr %.1.i52, align 1, !tbaa !12
  %.not12.i = icmp eq i8 %67, 0
  %68 = getelementptr i8, ptr %.1.i52, i64 1
  br i1 %.not12.i, label %69, label %.preheader.i, !llvm.loop !160

69:                                               ; preds = %.preheader.i
  %70 = load i8, ptr %68, align 1, !tbaa !12
  %.not13.i = icmp eq i8 %70, 0
  br i1 %.not13.i, label %71, label %.preheader14.i, !llvm.loop !161

71:                                               ; preds = %69
  %72 = tail call i32 (ptr, i32, ptr, ...) @__fprintf_chk(ptr noundef %7, i32 noundef 1, ptr noundef nonnull @.str.24, i64 noundef %66, ptr noundef nonnull @binary_filename) #16
  br label %get_nth_dirname.exit

get_nth_dirname.exit:                             ; preds = %.preheader14.i, %64, %71
  %.0.i = phi ptr [ @.str.23, %71 ], [ @.str.23, %64 ], [ %.09.i, %.preheader14.i ]
  store ptr %.0.i, ptr %5, align 8, !tbaa !36
  br label %73

73:                                               ; preds = %uleb128.exit51, %get_nth_dirname.exit
  %74 = add i32 %.067, 1
  %.not = icmp sgt i32 %74, %0
  br i1 %.not, label %.loopexit, label %21, !llvm.loop !162

.loopexit:                                        ; preds = %73, %.preheader55, %13, %23
  ret void
}